target datalayout = "e-m:e-p270:32:32-p271:32:32-p272:64:64-i64:64-i128:128-f80:128-n8:16:32:64-S128"
target triple = "x86_64-pc-linux-gnu"

%class.OopHandle = type { ptr }
%class.MemRegion = type { ptr, i64 }
%class.ShenandoahRegionIterator = type { ptr, [64 x i8], i64, [64 x i8] }
%class.ShenandoahHeap = type <{ %class.CollectedHeap, %class.ShenandoahSpaceInfo, %class.ShenandoahLock, i64, i64, i64, [64 x i8], i64, i64, i64, [64 x i8], i32, [4 x i8], ptr, ptr, %class.MemRegion, i8, [7 x i8], i64, ptr, %class.ShenandoahRegionIterator, i8, %struct.ShenandoahSharedBitmap, %struct.ShenandoahSharedFlag, %struct.ShenandoahSharedFlag, %struct.ShenandoahSharedFlag, %struct.ShenandoahSharedFlag, %struct.ShenandoahSharedFlag, i8, i64, %struct.ShenandoahSharedEnumFlag, [7 x i8], ptr, ptr, ptr, ptr, ptr, ptr, ptr, ptr, ptr, ptr, %class.GCMemoryManager, %class.GCMemoryManager, ptr, i32, [4 x i8], ptr, %struct.ShenandoahSharedFlag, %class.ShenandoahUnload, [6 x i8], ptr, %class.MemRegion, %class.MemRegion, %class.MarkBitMap, %class.MarkBitMap, i64, i64, i64, i64, i64, i8, i8, [6 x i8], ptr, ptr, %class.ShenandoahEvacOOMHandler, %struct.ShenandoahSharedFlag, [7 x i8] }>
%class.CollectedHeap = type { ptr, ptr, i64, i64, %class.SoftRefPolicy, %class.MemRegion, i8, i64, i32, i32, i32, i32, ptr, ptr }
%class.SoftRefPolicy = type { i8, i8 }
%class.ShenandoahSpaceInfo = type { ptr }
%class.ShenandoahLock = type { [64 x i8], i32, [64 x i8], ptr, [64 x i8] }
%struct.ShenandoahSharedBitmap = type { [64 x i8], i8, [64 x i8] }
%struct.ShenandoahSharedEnumFlag = type { [64 x i8], i8, [64 x i8] }
%class.GCMemoryManager = type <{ %class.MemoryManager.base, [7 x i8], i64, %class.elapsedTimer, ptr, ptr, ptr, i32, i8, [10 x i8], i8 }>
%class.MemoryManager.base = type <{ ptr, [10 x ptr], i32, [4 x i8], ptr, %class.OopHandle, i8 }>
%class.elapsedTimer = type <{ i64, i64, i8, [7 x i8] }>
%class.ShenandoahUnload = type { i8 }
%class.MarkBitMap = type { ptr, %class.MemRegion, i32, %class.BitMapView }
%class.BitMapView = type { %class.BitMap }
%class.BitMap = type { ptr, i64 }
%class.ShenandoahEvacOOMHandler = type { i32, [64 x i8], ptr }
%struct.ShenandoahSharedFlag = type { [64 x i8], i8, [64 x i8] }
%class.ShenandoahFreeSet = type { ptr, %class.ShenandoahRegionPartitions, ptr, i8, i64, i64 }
%class.ShenandoahRegionPartitions = type { i64, i64, ptr, [2 x %class.ShenandoahSimpleBitMap], [2 x i64], [2 x i64], [2 x i64], [2 x i64], [2 x i64], [2 x i64], [2 x i64] }
%class.ShenandoahSimpleBitMap = type { i64, i64, ptr }

; Function Attrs: mustprogress nounwind uwtable
define linkonce_odr hidden noundef i64 @_ZNK26ShenandoahRegionPartitions7used_byE28ShenandoahFreeSetPartitionId(ptr noundef nonnull align 8 dereferenceable(184) %0, i8 noundef zeroext %1) #1 comdat align 2 {
  %3 = alloca ptr, align 8
  %4 = alloca i8, align 1
  store ptr %0, ptr %3, align 8
  store i8 %1, ptr %4, align 1
  %5 = load ptr, ptr %3, align 8
  %6 = getelementptr inbounds %class.ShenandoahRegionPartitions, ptr %5, i32 0, i32 9
  %7 = load i8, ptr %4, align 1
  %8 = zext i8 %7 to i32
  %9 = sext i32 %8 to i64
  %10 = getelementptr inbounds [2 x i64], ptr %6, i64 0, i64 %9
  %11 = load i64, ptr %10, align 8
  ret i64 %11
}

; Function Attrs: mustprogress nounwind uwtable
define linkonce_odr hidden noundef i64 @_ZNK26ShenandoahRegionPartitions11capacity_ofE28ShenandoahFreeSetPartitionId(ptr noundef nonnull align 8 dereferenceable(184) %0, i8 noundef zeroext %1) #1 comdat align 2 {
  %3 = alloca ptr, align 8
  %4 = alloca i8, align 1
  store ptr %0, ptr %3, align 8
  store i8 %1, ptr %4, align 1
  %5 = load ptr, ptr %3, align 8
  %6 = getelementptr inbounds %class.ShenandoahRegionPartitions, ptr %5, i32 0, i32 8
  %7 = load i8, ptr %4, align 1
  %8 = zext i8 %7 to i32
  %9 = sext i32 %8 to i64
  %10 = getelementptr inbounds [2 x i64], ptr %6, i64 0, i64 %9
  %11 = load i64, ptr %10, align 8
  ret i64 %11
}

; Function Attrs: mustprogress nounwind uwtable
define linkonce_odr hidden noundef i64 @_ZNK17ShenandoahFreeSet4usedEv(ptr noundef nonnull align 8 dereferenceable(224) %0) #1 comdat align 2 {
  %2 = alloca ptr, align 8
  store ptr %0, ptr %2, align 8
  %3 = load ptr, ptr %2, align 8
  %4 = getelementptr inbounds %class.ShenandoahFreeSet, ptr %3, i32 0, i32 1
  %5 = call noundef i64 @_ZNK26ShenandoahRegionPartitions7used_byE28ShenandoahFreeSetPartitionId(ptr noundef nonnull align 8 dereferenceable(184) %4, i8 noundef zeroext 0)
  ret i64 %5
}

; Function Attrs: mustprogress nounwind uwtable
define linkonce_odr hidden noundef i64 @_ZNK17ShenandoahFreeSet8capacityEv(ptr noundef nonnull align 8 dereferenceable(224) %0) #1 comdat align 2 {
  %2 = alloca ptr, align 8
  store ptr %0, ptr %2, align 8
  %3 = load ptr, ptr %2, align 8
  %4 = getelementptr inbounds %class.ShenandoahFreeSet, ptr %3, i32 0, i32 1
  %5 = call noundef i64 @_ZNK26ShenandoahRegionPartitions11capacity_ofE28ShenandoahFreeSetPartitionId(ptr noundef nonnull align 8 dereferenceable(184) %4, i8 noundef zeroext 0)
  ret i64 %5
}

; Function Attrs: mustprogress nounwind uwtable
define linkonce_odr hidden noundef i64 @_ZNK17ShenandoahFreeSet9availableEv(ptr noundef nonnull align 8 dereferenceable(224) %0) #1 comdat align 2 {
  %2 = alloca ptr, align 8
  store ptr %0, ptr %2, align 8
  %3 = load ptr, ptr %2, align 8
  %4 = call noundef i64 @_ZNK17ShenandoahFreeSet8capacityEv(ptr noundef nonnull align 8 dereferenceable(224) %3)
  %5 = call noundef i64 @_ZNK17ShenandoahFreeSet4usedEv(ptr noundef nonnull align 8 dereferenceable(224) %3)
  %6 = sub i64 %4, %5
  ret i64 %6
}

; Function Attrs: mustprogress nounwind uwtable
define linkonce_odr hidden noundef ptr @_ZNK14ShenandoahHeap8free_setEv(ptr noundef nonnull align 8 dereferenceable(2657) %0) #1 comdat align 2 {
  %2 = alloca ptr, align 8
  store ptr %0, ptr %2, align 8
  %3 = load ptr, ptr %2, align 8
  %4 = getelementptr inbounds %class.ShenandoahHeap, ptr %3, i32 0, i32 36
  %5 = load ptr, ptr %4, align 8
  ret ptr %5
}

; Function Attrs: mustprogress nounwind uwtable
define hidden noundef i64 @_ZNK14ShenandoahHeap9availableEv(ptr noundef nonnull align 8 dereferenceable(2657) %0) unnamed_addr #1 align 2 {
  %2 = alloca ptr, align 8
  store ptr %0, ptr %2, align 8
  %3 = load ptr, ptr %2, align 8
  %4 = call noundef ptr @_ZNK14ShenandoahHeap8free_setEv(ptr noundef nonnull align 8 dereferenceable(2657) %3)
  %5 = call noundef i64 @_ZNK17ShenandoahFreeSet9availableEv(ptr noundef nonnull align 8 dereferenceable(224) %4)
  ret i64 %5
}

; Function Attrs: nounwind uwtable
define hidden noundef i64 @_ZThn104_NK14ShenandoahHeap9availableEv(ptr noundef %0) unnamed_addr #0 align 2 {
  %2 = alloca ptr, align 8
  store ptr %0, ptr %2, align 8
  %3 = load ptr, ptr %2, align 8
  %4 = getelementptr inbounds i8, ptr %3, i64 -104
  %5 = tail call noundef i64 @_ZNK14ShenandoahHeap9availableEv(ptr noundef nonnull align 8 dereferenceable(2657) %4)
  ret i64 %5
}